; Function Attrs: mustprogress nounwind uwtable
define dso_local void @_ZN5clang4ento5taint21getTaintedSymbolsImplEN4llvm18IntrusiveRefCntPtrIKNS0_12ProgramStateEEEPKNS_4StmtEPKNS_15LocationContextEjb(ptr dead_on_unwind noalias writable sret(%"class.std::vector.81") align 8 %0, ptr nocapture noundef readonly %1, ptr noundef %2, ptr noundef %3, i32 noundef %4, i1 noundef zeroext %5) local_unnamed_addr #0 {
  %7 = alloca %"class.clang::ento::EnvironmentEntry", align 8
  %8 = alloca %"class.llvm::IntrusiveRefCntPtr", align 8
  %9 = load ptr, ptr %1, align 8
  call void @llvm.lifetime.start.p0(i64 16, ptr nonnull %7)
  %10 = getelementptr inbounds nuw i8, ptr %9, i64 16
  call void @_ZN5clang4ento16EnvironmentEntryC1EPKNS_4StmtEPKNS_15LocationContextE(ptr noundef nonnull align 8 dereferenceable(16) %7, ptr noundef %2, ptr noundef %3) #14
  %11 = getelementptr inbounds nuw i8, ptr %9, i64 8
  %12 = load ptr, ptr %11, align 8
  %13 = getelementptr inbounds nuw i8, ptr %12, i64 240
  %14 = load ptr, ptr %13, align 8
  %15 = call { ptr, i8 } @_ZNK5clang4ento11Environment7getSValERKNS0_16EnvironmentEntryERNS0_11SValBuilderE(ptr noundef nonnull align 8 dereferenceable(8) %10, ptr noundef nonnull align 8 dereferenceable(16) %7, ptr noundef nonnull align 8 dereferenceable(412) %14) #14
  call void @llvm.lifetime.end.p0(i64 16, ptr nonnull %7)
  %.fca.0.extract = extractvalue { ptr, i8 } %15, 0
  %.fca.1.extract = extractvalue { ptr, i8 } %15, 1
  %16 = load ptr, ptr %1, align 8
  store ptr %16, ptr %8, align 8
  %.not.i.i = icmp eq ptr %16, null
  br i1 %.not.i.i, label %_ZN4llvm18IntrusiveRefCntPtrIKN5clang4ento12ProgramStateEEC2ERKS5_.exit, label %17

17:                                               ; preds = %6
  call void @_ZN5clang4ento18ProgramStateRetainEPKNS0_12ProgramStateE(ptr noundef nonnull %16) #14
  br label %_ZN4llvm18IntrusiveRefCntPtrIKN5clang4ento12ProgramStateEEC2ERKS5_.exit

_ZN4llvm18IntrusiveRefCntPtrIKN5clang4ento12ProgramStateEEC2ERKS5_.exit: ; preds = %6, %17
  call void @_ZN5clang4ento5taint21getTaintedSymbolsImplEN4llvm18IntrusiveRefCntPtrIKNS0_12ProgramStateEEENS0_4SValEjb(ptr dead_on_unwind writable sret(%"class.std::vector.81") align 8 %0, ptr noundef nonnull %8, ptr %.fca.0.extract, i8 %.fca.1.extract, i32 noundef %4, i1 noundef zeroext %5)
  %18 = load ptr, ptr %8, align 8
  %.not.i.i7 = icmp eq ptr %18, null
  br i1 %.not.i.i7, label %_ZN4llvm18IntrusiveRefCntPtrIKN5clang4ento12ProgramStateEED2Ev.exit, label %19

19:                                               ; preds = %_ZN4llvm18IntrusiveRefCntPtrIKN5clang4ento12ProgramStateEEC2ERKS5_.exit
  call void @_ZN5clang4ento19ProgramStateReleaseEPKNS0_12ProgramStateE(ptr noundef nonnull %18) #14
  br label %_ZN4llvm18IntrusiveRefCntPtrIKN5clang4ento12ProgramStateEED2Ev.exit

_ZN4llvm18IntrusiveRefCntPtrIKN5clang4ento12ProgramStateEED2Ev.exit: ; preds = %_ZN4llvm18IntrusiveRefCntPtrIKN5clang4ento12ProgramStateEEC2ERKS5_.exit, %19
  ret void
}